target datalayout = "e-m:e-p270:32:32-p271:32:32-p272:64:64-i64:64-i128:128-f80:128-n8:16:32:64-S128"
target triple = "x86_64-pc-linux-gnu"

%struct.nameData = type { [64 x i8] }
%struct.ObjectAddress = type { i32, i32, i32 }
%struct.FormData_pg_constraint = type { i32, %struct.nameData, i32, i8, i8, i8, i8, i8, i32, i32, i32, i32, i32, i8, i8, i8, i8, i16, i8, i8 }
%struct.HeapTupleData = type { i32, %struct.ItemPointerData, i32, ptr }
%struct.ItemPointerData = type { %struct.BlockIdData, i16 }
%struct.BlockIdData = type { i16, i16 }
%struct.HeapTupleHeaderData = type { %union.anon, %struct.ItemPointerData, i16, i16, i8, [0 x i8] }
%union.anon = type { %struct.HeapTupleFields }
%struct.HeapTupleFields = type { i32, i32, %union.anon.0 }
%union.anon.0 = type { i32 }

@.str.2 = private unnamed_addr constant [16 x i8] c"pg_constraint.c\00", align 1
@.str.4 = private unnamed_addr constant [29 x i8] c"too many inheritance parents\00", align 1
@.str.5 = private unnamed_addr constant [38 x i8] c"cache lookup failed for constraint %u\00", align 1
@__func__.ConstraintSetParentConstraint = private unnamed_addr constant [30 x i8] c"ConstraintSetParentConstraint\00", align 1
@.str.11 = private unnamed_addr constant [46 x i8] c"constraint %u already has a parent constraint\00", align 1

; Function Attrs: inlinehint nounwind uwtable
define internal zeroext i1 @pg_add_s16_overflow(i16 noundef signext %0, i16 noundef signext %1, ptr noundef %2) #3 {
  %4 = alloca i16, align 2
  %5 = alloca i16, align 2
  %6 = alloca ptr, align 8
  store i16 %0, ptr %4, align 2
  store i16 %1, ptr %5, align 2
  store ptr %2, ptr %6, align 8
  %7 = load i16, ptr %4, align 2
  %8 = load i16, ptr %5, align 2
  %9 = load ptr, ptr %6, align 8
  %10 = call { i16, i1 } @llvm.sadd.with.overflow.i16(i16 %7, i16 %8)
  %11 = extractvalue { i16, i1 } %10, 1
  %12 = extractvalue { i16, i1 } %10, 0
  store i16 %12, ptr %9, align 2
  ret i1 %11
}

; Function Attrs: inlinehint nounwind uwtable
define internal ptr @GETSTRUCT(ptr noundef %0) #3 {
  %2 = alloca ptr, align 8
  store ptr %0, ptr %2, align 8
  %3 = load ptr, ptr %2, align 8
  %4 = getelementptr inbounds nuw %struct.HeapTupleData, ptr %3, i32 0, i32 3
  %5 = load ptr, ptr %4, align 8
  %6 = load ptr, ptr %2, align 8
  %7 = getelementptr inbounds nuw %struct.HeapTupleData, ptr %6, i32 0, i32 3
  %8 = load ptr, ptr %7, align 8
  %9 = getelementptr inbounds nuw %struct.HeapTupleHeaderData, ptr %8, i32 0, i32 4
  %10 = load i8, ptr %9, align 2
  %11 = zext i8 %10 to i32
  %12 = sext i32 %11 to i64
  %13 = getelementptr inbounds i8, ptr %5, i64 %12
  ret ptr %13
}

; Function Attrs: inlinehint nounwind uwtable
define internal i64 @ObjectIdGetDatum(i32 noundef %0) #3 {
  %2 = alloca i32, align 4
  store i32 %0, ptr %2, align 4
  %3 = load i32, ptr %2, align 4
  %4 = zext i32 %3 to i64
  ret i64 %4
}

; Function Attrs: nounwind uwtable
define dso_local void @ConstraintSetParentConstraint(i32 noundef %0, i32 noundef %1, i32 noundef %2) #0 {
  %4 = alloca i32, align 4
  %5 = alloca i32, align 4
  %6 = alloca i32, align 4
  %7 = alloca ptr, align 8
  %8 = alloca ptr, align 8
  %9 = alloca ptr, align 8
  %10 = alloca ptr, align 8
  %11 = alloca %struct.ObjectAddress, align 4
  %12 = alloca %struct.ObjectAddress, align 4
  store i32 %0, ptr %4, align 4
  store i32 %1, ptr %5, align 4
  store i32 %2, ptr %6, align 4
  call void @llvm.lifetime.start.p0(i64 8, ptr %7) #9
  call void @llvm.lifetime.start.p0(i64 8, ptr %8) #9
  call void @llvm.lifetime.start.p0(i64 8, ptr %9) #9
  call void @llvm.lifetime.start.p0(i64 8, ptr %10) #9
  call void @llvm.lifetime.start.p0(i64 12, ptr %11) #9
  call void @llvm.lifetime.start.p0(i64 12, ptr %12) #9
  %13 = call ptr @table_open(i32 noundef 2606, i32 noundef 3)
  store ptr %13, ptr %7, align 8
  %14 = load i32, ptr %4, align 4
  %15 = call i64 @ObjectIdGetDatum(i32 noundef %14)
  %16 = call ptr @SearchSysCache1(i32 noundef 19, i64 noundef %15)
  store ptr %16, ptr %9, align 8
  %17 = load ptr, ptr %9, align 8
  %18 = icmp ne ptr %17, null
  br i1 %18, label %31, label %19

19:                                               ; preds = %3
  br label %20

20:                                               ; preds = %19
  br i1 true, label %21, label %23

21:                                               ; preds = %20
  %22 = call zeroext i1 @errstart_cold(i32 noundef 21, ptr noundef null) #11
  br i1 %22, label %25, label %28

23:                                               ; preds = %20
  %24 = call zeroext i1 @errstart(i32 noundef 21, ptr noundef null)
  br i1 %24, label %25, label %28

25:                                               ; preds = %23, %21
  %26 = load i32, ptr %4, align 4
  %27 = call i32 (ptr, ...) @errmsg_internal(ptr noundef @.str.5, i32 noundef %26)
  call void @errfinish(ptr noundef @.str.2, i32 noundef 1097, ptr noundef @__func__.ConstraintSetParentConstraint)
  br label %28

28:                                               ; preds = %25, %23, %21
  unreachable

29:                                               ; No predecessors!
  br label %30

30:                                               ; preds = %29
  br label %31

31:                                               ; preds = %30, %3
  %32 = load ptr, ptr %9, align 8
  %33 = call ptr @heap_copytuple(ptr noundef %32)
  store ptr %33, ptr %10, align 8
  %34 = load ptr, ptr %10, align 8
  %35 = call ptr @GETSTRUCT(ptr noundef %34)
  store ptr %35, ptr %8, align 8
  %36 = load i32, ptr %5, align 4
  %37 = icmp ne i32 %36, 0
  br i1 %37, label %38, label %105

38:                                               ; preds = %31
  %39 = load ptr, ptr %8, align 8
  %40 = getelementptr inbounds nuw %struct.FormData_pg_constraint, ptr %39, i32 0, i32 11
  %41 = load i32, ptr %40, align 4
  %42 = icmp ne i32 %41, 0
  br i1 %42, label %43, label %55

43:                                               ; preds = %38
  br label %44

44:                                               ; preds = %43
  br i1 true, label %45, label %47

45:                                               ; preds = %44
  %46 = call zeroext i1 @errstart_cold(i32 noundef 21, ptr noundef null) #11
  br i1 %46, label %49, label %52

47:                                               ; preds = %44
  %48 = call zeroext i1 @errstart(i32 noundef 21, ptr noundef null)
  br i1 %48, label %49, label %52

49:                                               ; preds = %47, %45
  %50 = load i32, ptr %4, align 4
  %51 = call i32 (ptr, ...) @errmsg_internal(ptr noundef @.str.11, i32 noundef %50)
  call void @errfinish(ptr noundef @.str.2, i32 noundef 1106, ptr noundef @__func__.ConstraintSetParentConstraint)
  br label %52

52:                                               ; preds = %49, %47, %45
  unreachable

53:                                               ; No predecessors!
  br label %54

54:                                               ; preds = %53
  br label %55

55:                                               ; preds = %54, %38
  %56 = load ptr, ptr %8, align 8
  %57 = getelementptr inbounds nuw %struct.FormData_pg_constraint, ptr %56, i32 0, i32 16
  store i8 0, ptr %57, align 1
  %58 = load ptr, ptr %8, align 8
  %59 = getelementptr inbounds nuw %struct.FormData_pg_constraint, ptr %58, i32 0, i32 17
  %60 = load i16, ptr %59, align 4
  %61 = load ptr, ptr %8, align 8
  %62 = getelementptr inbounds nuw %struct.FormData_pg_constraint, ptr %61, i32 0, i32 17
  %63 = call zeroext i1 @pg_add_s16_overflow(i16 noundef signext %60, i16 noundef signext 1, ptr noundef %62)
  br i1 %63, label %64, label %76

64:                                               ; preds = %55
  br label %65

65:                                               ; preds = %64
  br i1 true, label %66, label %68

66:                                               ; preds = %65
  %67 = call zeroext i1 @errstart_cold(i32 noundef 21, ptr noundef null) #11
  br i1 %67, label %70, label %73

68:                                               ; preds = %65
  %69 = call zeroext i1 @errstart(i32 noundef 21, ptr noundef null)
  br i1 %69, label %70, label %73

70:                                               ; preds = %68, %66
  %71 = call i32 @errcode(i32 noundef 261)
  %72 = call i32 (ptr, ...) @errmsg(ptr noundef @.str.4)
  call void @errfinish(ptr noundef @.str.2, i32 noundef 1113, ptr noundef @__func__.ConstraintSetParentConstraint)
  br label %73

73:                                               ; preds = %70, %68, %66
  unreachable

74:                                               ; No predecessors!
  br label %75

75:                                               ; preds = %74
  br label %76

76:                                               ; preds = %75, %55
  %77 = load i32, ptr %5, align 4
  %78 = load ptr, ptr %8, align 8
  %79 = getelementptr inbounds nuw %struct.FormData_pg_constraint, ptr %78, i32 0, i32 11
  store i32 %77, ptr %79, align 4
  %80 = load ptr, ptr %7, align 8
  %81 = load ptr, ptr %9, align 8
  %82 = getelementptr inbounds nuw %struct.HeapTupleData, ptr %81, i32 0, i32 1
  %83 = load ptr, ptr %10, align 8
  call void @CatalogTupleUpdate(ptr noundef %80, ptr noundef %82, ptr noundef %83)
  br label %84

84:                                               ; preds = %76
  %85 = getelementptr inbounds nuw %struct.ObjectAddress, ptr %11, i32 0, i32 0
  store i32 2606, ptr %85, align 4
  %86 = load i32, ptr %4, align 4
  %87 = getelementptr inbounds nuw %struct.ObjectAddress, ptr %11, i32 0, i32 1
  store i32 %86, ptr %87, align 4
  %88 = getelementptr inbounds nuw %struct.ObjectAddress, ptr %11, i32 0, i32 2
  store i32 0, ptr %88, align 4
  br label %89

89:                                               ; preds = %84
  br label %90

90:                                               ; preds = %89
  br label %91

91:                                               ; preds = %90
  %92 = getelementptr inbounds nuw %struct.ObjectAddress, ptr %12, i32 0, i32 0
  store i32 2606, ptr %92, align 4
  %93 = load i32, ptr %5, align 4
  %94 = getelementptr inbounds nuw %struct.ObjectAddress, ptr %12, i32 0, i32 1
  store i32 %93, ptr %94, align 4
  %95 = getelementptr inbounds nuw %struct.ObjectAddress, ptr %12, i32 0, i32 2
  store i32 0, ptr %95, align 4
  br label %96

96:                                               ; preds = %91
  br label %97

97:                                               ; preds = %96
  call void @recordDependencyOn(ptr noundef %11, ptr noundef %12, i32 noundef 80)
  br label %98

98:                                               ; preds = %97
  %99 = getelementptr inbounds nuw %struct.ObjectAddress, ptr %12, i32 0, i32 0
  store i32 1259, ptr %99, align 4
  %100 = load i32, ptr %6, align 4
  %101 = getelementptr inbounds nuw %struct.ObjectAddress, ptr %12, i32 0, i32 1
  store i32 %100, ptr %101, align 4
  %102 = getelementptr inbounds nuw %struct.ObjectAddress, ptr %12, i32 0, i32 2
  store i32 0, ptr %102, align 4
  br label %103

103:                                              ; preds = %98
  br label %104

104:                                              ; preds = %103
  call void @recordDependencyOn(ptr noundef %11, ptr noundef %12, i32 noundef 83)
  br label %122

105:                                              ; preds = %31
  %106 = load ptr, ptr %8, align 8
  %107 = getelementptr inbounds nuw %struct.FormData_pg_constraint, ptr %106, i32 0, i32 17
  %108 = load i16, ptr %107, align 4
  %109 = add i16 %108, -1
  store i16 %109, ptr %107, align 4
  %110 = load ptr, ptr %8, align 8
  %111 = getelementptr inbounds nuw %struct.FormData_pg_constraint, ptr %110, i32 0, i32 16
  store i8 1, ptr %111, align 1
  %112 = load ptr, ptr %8, align 8
  %113 = getelementptr inbounds nuw %struct.FormData_pg_constraint, ptr %112, i32 0, i32 11
  store i32 0, ptr %113, align 4
  %114 = load ptr, ptr %7, align 8
  %115 = load ptr, ptr %9, align 8
  %116 = getelementptr inbounds nuw %struct.HeapTupleData, ptr %115, i32 0, i32 1
  %117 = load ptr, ptr %10, align 8
  call void @CatalogTupleUpdate(ptr noundef %114, ptr noundef %116, ptr noundef %117)
  %118 = load i32, ptr %4, align 4
  %119 = call i64 @deleteDependencyRecordsForClass(i32 noundef 2606, i32 noundef %118, i32 noundef 2606, i8 noundef signext 80)
  %120 = load i32, ptr %4, align 4
  %121 = call i64 @deleteDependencyRecordsForClass(i32 noundef 2606, i32 noundef %120, i32 noundef 1259, i8 noundef signext 83)
  br label %122

122:                                              ; preds = %105, %104
  %123 = load ptr, ptr %9, align 8
  call void @ReleaseSysCache(ptr noundef %123)
  %124 = load ptr, ptr %7, align 8
  call void @table_close(ptr noundef %124, i32 noundef 3)
  call void @llvm.lifetime.end.p0(i64 12, ptr %12) #9
  call void @llvm.lifetime.end.p0(i64 12, ptr %11) #9
  call void @llvm.lifetime.end.p0(i64 8, ptr %10) #9
  call void @llvm.lifetime.end.p0(i64 8, ptr %9) #9
  call void @llvm.lifetime.end.p0(i64 8, ptr %8) #9
  call void @llvm.lifetime.end.p0(i64 8, ptr %7) #9
  ret void
}