; Function Attrs: nounwind uwtable
define dso_local void @ConstraintSetParentConstraint(i32 noundef %0, i32 noundef %1, i32 noundef %2) local_unnamed_addr #0 {
  %4 = alloca %struct.ObjectAddress, align 4
  %5 = alloca %struct.ObjectAddress, align 4
  call void @llvm.lifetime.start.p0(i64 12, ptr nonnull %4) #12
  call void @llvm.lifetime.start.p0(i64 12, ptr nonnull %5) #12
  %6 = tail call ptr @table_open(i32 noundef 2606, i32 noundef 3) #12
  %7 = zext i32 %0 to i64
  %8 = tail call ptr @SearchSysCache1(i32 noundef 19, i64 noundef %7) #12
  %.not = icmp eq ptr %8, null
  br i1 %.not, label %9, label %12

9:                                                ; preds = %3
  %10 = tail call zeroext i1 @errstart_cold(i32 noundef 21, ptr noundef null) #14
  tail call void @llvm.assume(i1 %10)
  %11 = tail call i32 (ptr, ...) @errmsg_internal(ptr noundef nonnull @.str.5, i32 noundef %0) #12
  tail call void @errfinish(ptr noundef nonnull @.str.2, i32 noundef 1097, ptr noundef nonnull @__func__.ConstraintSetParentConstraint) #12
  unreachable

12:                                               ; preds = %3
  %13 = tail call ptr @heap_copytuple(ptr noundef nonnull %8) #12
  %14 = getelementptr i8, ptr %13, i64 16
  %.val = load ptr, ptr %14, align 8
  %15 = getelementptr inbounds nuw i8, ptr %.val, i64 22
  %16 = load i8, ptr %15, align 2
  %17 = zext i8 %16 to i64
  %18 = getelementptr inbounds nuw i8, ptr %.val, i64 %17
  %.not29 = icmp eq i32 %1, 0
  br i1 %.not29, label %42, label %19

19:                                               ; preds = %12
  %20 = getelementptr inbounds nuw i8, ptr %18, i64 92
  %21 = load i32, ptr %20, align 4
  %.not30 = icmp eq i32 %21, 0
  br i1 %.not30, label %25, label %22

22:                                               ; preds = %19
  %23 = tail call zeroext i1 @errstart_cold(i32 noundef 21, ptr noundef null) #14
  tail call void @llvm.assume(i1 %23)
  %24 = tail call i32 (ptr, ...) @errmsg_internal(ptr noundef nonnull @.str.11, i32 noundef %0) #12
  tail call void @errfinish(ptr noundef nonnull @.str.2, i32 noundef 1106, ptr noundef nonnull @__func__.ConstraintSetParentConstraint) #12
  unreachable

25:                                               ; preds = %19
  %26 = getelementptr inbounds nuw i8, ptr %18, i64 103
  store i8 0, ptr %26, align 1
  %27 = getelementptr inbounds nuw i8, ptr %18, i64 104
  %28 = load i16, ptr %27, align 4
  %29 = tail call { i16, i1 } @llvm.sadd.with.overflow.i16(i16 %28, i16 1)
  %30 = extractvalue { i16, i1 } %29, 1
  %31 = extractvalue { i16, i1 } %29, 0
  store i16 %31, ptr %27, align 2
  br i1 %30, label %32, label %36

32:                                               ; preds = %25
  %33 = tail call zeroext i1 @errstart_cold(i32 noundef 21, ptr noundef null) #14
  tail call void @llvm.assume(i1 %33)
  %34 = tail call i32 @errcode(i32 noundef 261) #12
  %35 = tail call i32 (ptr, ...) @errmsg(ptr noundef nonnull @.str.4) #12
  tail call void @errfinish(ptr noundef nonnull @.str.2, i32 noundef 1113, ptr noundef nonnull @__func__.ConstraintSetParentConstraint) #12
  unreachable

36:                                               ; preds = %25
  store i32 %1, ptr %20, align 4
  %37 = getelementptr inbounds nuw i8, ptr %8, i64 4
  tail call void @CatalogTupleUpdate(ptr noundef %6, ptr noundef nonnull %37, ptr noundef nonnull %13) #12
  store i32 2606, ptr %4, align 4
  %38 = getelementptr inbounds nuw i8, ptr %4, i64 4
  store i32 %0, ptr %38, align 4
  %39 = getelementptr inbounds nuw i8, ptr %4, i64 8
  store i32 0, ptr %39, align 4
  store i32 2606, ptr %5, align 4
  %40 = getelementptr inbounds nuw i8, ptr %5, i64 4
  store i32 %1, ptr %40, align 4
  %41 = getelementptr inbounds nuw i8, ptr %5, i64 8
  store i32 0, ptr %41, align 4
  call void @recordDependencyOn(ptr noundef nonnull %4, ptr noundef nonnull %5, i32 noundef 80) #12
  store i32 1259, ptr %5, align 4
  store i32 %2, ptr %40, align 4
  store i32 0, ptr %41, align 4
  call void @recordDependencyOn(ptr noundef nonnull %4, ptr noundef nonnull %5, i32 noundef 83) #12
  br label %51

42:                                               ; preds = %12
  %43 = getelementptr inbounds nuw i8, ptr %18, i64 104
  %44 = load i16, ptr %43, align 4
  %45 = add i16 %44, -1
  store i16 %45, ptr %43, align 4
  %46 = getelementptr inbounds nuw i8, ptr %18, i64 103
  store i8 1, ptr %46, align 1
  %47 = getelementptr inbounds nuw i8, ptr %18, i64 92
  store i32 0, ptr %47, align 4
  %48 = getelementptr inbounds nuw i8, ptr %8, i64 4
  tail call void @CatalogTupleUpdate(ptr noundef %6, ptr noundef nonnull %48, ptr noundef nonnull %13) #12
  %49 = tail call i64 @deleteDependencyRecordsForClass(i32 noundef 2606, i32 noundef %0, i32 noundef 2606, i8 noundef signext 80) #12
  %50 = tail call i64 @deleteDependencyRecordsForClass(i32 noundef 2606, i32 noundef %0, i32 noundef 1259, i8 noundef signext 83) #12
  br label %51

51:                                               ; preds = %42, %36
  call void @ReleaseSysCache(ptr noundef nonnull %8) #12
  call void @table_close(ptr noundef %6, i32 noundef 3) #12
  call void @llvm.lifetime.end.p0(i64 12, ptr nonnull %5) #12
  call void @llvm.lifetime.end.p0(i64 12, ptr nonnull %4) #12
  ret void
}